target datalayout = "e-m:e-p270:32:32-p271:32:32-p272:64:64-i64:64-i128:128-f80:128-n8:16:32:64-S128"
target triple = "x86_64-pc-linux-gnu"

%"class.smt::theory_user_propagator" = type <{ %"class.smt::theory.base", [3 x i8], %"class.user_propagator::callback", ptr, %"class.std::function", %"class.std::function.1", %"class.std::function.3", %"class.std::function", %"class.std::function.5", %"class.std::function.5", %"class.std::function.5", %"class.std::function.7", %"class.std::function.9", ptr, i32, [4 x i8], %class.uint_set, %class.vector.11, %class.svector, %class.vector.12, i32, [4 x i8], %class.svector.13, %class.svector.15, %"struct.smt::theory_user_propagator::stats", [4 x i8], %class.ref_vector, %class.svector, i8, [7 x i8], %class.ref_vector, %class.svector, i32, [4 x i8], ptr, i32, i32, %class.vector.19, i32, [4 x i8] }>
%"class.smt::theory.base" = type <{ ptr, i32, [4 x i8], ptr, ptr, %class.ptr_vector, %class.svector, i32, i8 }>
%class.ptr_vector = type { %class.vector }
%class.vector = type { ptr }
%"class.user_propagator::callback" = type { ptr }
%"class.std::function.1" = type { %"class.std::_Function_base", ptr }
%"class.std::_Function_base" = type { %"union.std::_Any_data", ptr }
%"union.std::_Any_data" = type { %"union.std::_Nocopy_types" }
%"union.std::_Nocopy_types" = type { { i64, i64 } }
%"class.std::function.3" = type { %"class.std::_Function_base", ptr }
%"class.std::function" = type { %"class.std::_Function_base", ptr }
%"class.std::function.5" = type { %"class.std::_Function_base", ptr }
%"class.std::function.7" = type { %"class.std::_Function_base", ptr }
%"class.std::function.9" = type { %"class.std::_Function_base", ptr }
%class.uint_set = type { %class.svector }
%class.vector.11 = type { ptr }
%class.vector.12 = type { ptr }
%class.svector.13 = type { %class.vector.14 }
%class.vector.14 = type { ptr }
%class.svector.15 = type { %class.vector.16 }
%class.vector.16 = type { ptr }
%"struct.smt::theory_user_propagator::stats" = type { i32 }
%class.ref_vector = type { %class.ref_vector_core }
%class.ref_vector_core = type { %class.ref_manager_wrapper, %class.ptr_vector.17 }
%class.ref_manager_wrapper = type { ptr }
%class.ptr_vector.17 = type { %class.vector.18 }
%class.vector.18 = type { ptr }
%class.svector = type { %class.vector.0 }
%class.vector.0 = type { ptr }
%class.vector.19 = type { ptr }

; Function Attrs: mustprogress nounwind uwtable
define linkonce_odr hidden noundef i32 @_ZNK6vectorIP4exprLb0EjE4sizeEv(ptr noundef nonnull align 8 dereferenceable(8) %0) #4 comdat align 2 {
  %2 = alloca i32, align 4
  %3 = alloca ptr, align 8
  store ptr %0, ptr %3, align 8, !tbaa !753
  %4 = load ptr, ptr %3, align 8
  %5 = getelementptr inbounds nuw %class.vector.18, ptr %4, i32 0, i32 0
  %6 = load ptr, ptr %5, align 8, !tbaa !755
  %7 = icmp eq ptr %6, null
  br i1 %7, label %8, label %9

8:                                                ; preds = %1
  store i32 0, ptr %2, align 4
  br label %14

9:                                                ; preds = %1
  %10 = getelementptr inbounds nuw %class.vector.18, ptr %4, i32 0, i32 0
  %11 = load ptr, ptr %10, align 8, !tbaa !755
  %12 = getelementptr inbounds i32, ptr %11, i64 -1
  %13 = load i32, ptr %12, align 4, !tbaa !8
  store i32 %13, ptr %2, align 4
  br label %14

14:                                               ; preds = %9, %8
  %15 = load i32, ptr %2, align 4
  ret i32 %15
}

; Function Attrs: mustprogress nounwind uwtable
define linkonce_odr hidden noundef i32 @_ZNK6vectorI10ref_vectorI4expr11ast_managerELb1EjE4sizeEv(ptr noundef nonnull align 8 dereferenceable(8) %0) #4 comdat align 2 {
  %2 = alloca i32, align 4
  %3 = alloca ptr, align 8
  store ptr %0, ptr %3, align 8, !tbaa !592
  %4 = load ptr, ptr %3, align 8
  %5 = getelementptr inbounds nuw %class.vector.19, ptr %4, i32 0, i32 0
  %6 = load ptr, ptr %5, align 8, !tbaa !594
  %7 = icmp eq ptr %6, null
  br i1 %7, label %8, label %9

8:                                                ; preds = %1
  store i32 0, ptr %2, align 4
  br label %14

9:                                                ; preds = %1
  %10 = getelementptr inbounds nuw %class.vector.19, ptr %4, i32 0, i32 0
  %11 = load ptr, ptr %10, align 8, !tbaa !594
  %12 = getelementptr inbounds i32, ptr %11, i64 -1
  %13 = load i32, ptr %12, align 4, !tbaa !8
  store i32 %13, ptr %2, align 4
  br label %14

14:                                               ; preds = %9, %8
  %15 = load i32, ptr %2, align 4
  ret i32 %15
}

; Function Attrs: mustprogress nounwind uwtable
define linkonce_odr hidden noundef i32 @_ZNK15ref_vector_coreI4expr19ref_manager_wrapperIS0_11ast_managerEE4sizeEv(ptr noundef nonnull align 8 dereferenceable(16) %0) #4 comdat align 2 {
  %2 = alloca ptr, align 8
  store ptr %0, ptr %2, align 8, !tbaa !595
  %3 = load ptr, ptr %2, align 8
  %4 = getelementptr inbounds nuw %class.ref_vector_core, ptr %3, i32 0, i32 1
  %5 = call noundef i32 @_ZNK6vectorIP4exprLb0EjE4sizeEv(ptr noundef nonnull align 8 dereferenceable(8) %4)
  ret i32 %5
}

; Function Attrs: mustprogress nounwind uwtable
define linkonce_odr hidden noundef i32 @_ZNK6vectorIN3smt22theory_user_propagator9prop_infoELb1EjE4sizeEv(ptr noundef nonnull align 8 dereferenceable(8) %0) #4 comdat align 2 {
  %2 = alloca i32, align 4
  %3 = alloca ptr, align 8
  store ptr %0, ptr %3, align 8, !tbaa !578
  %4 = load ptr, ptr %3, align 8
  %5 = getelementptr inbounds nuw %class.vector.11, ptr %4, i32 0, i32 0
  %6 = load ptr, ptr %5, align 8, !tbaa !580
  %7 = icmp eq ptr %6, null
  br i1 %7, label %8, label %9

8:                                                ; preds = %1
  store i32 0, ptr %2, align 4
  br label %14

9:                                                ; preds = %1
  %10 = getelementptr inbounds nuw %class.vector.11, ptr %4, i32 0, i32 0
  %11 = load ptr, ptr %10, align 8, !tbaa !580
  %12 = getelementptr inbounds i32, ptr %11, i64 -1
  %13 = load i32, ptr %12, align 4, !tbaa !8
  store i32 %13, ptr %2, align 4
  br label %14

14:                                               ; preds = %9, %8
  %15 = load i32, ptr %2, align 4
  ret i32 %15
}

; Function Attrs: mustprogress uwtable
define hidden noundef zeroext i1 @_ZN3smt22theory_user_propagator13can_propagateEv(ptr noundef nonnull align 8 dereferenceable(532) %0) unnamed_addr #6 align 2 {
  %2 = alloca ptr, align 8
  store ptr %0, ptr %2, align 8, !tbaa !28
  %3 = load ptr, ptr %2, align 8
  %4 = getelementptr inbounds nuw %"class.smt::theory_user_propagator", ptr %3, i32 0, i32 14
  %5 = load i32, ptr %4, align 8, !tbaa !76
  %6 = getelementptr inbounds nuw %"class.smt::theory_user_propagator", ptr %3, i32 0, i32 17
  %7 = call noundef i32 @_ZNK6vectorIN3smt22theory_user_propagator9prop_infoELb1EjE4sizeEv(ptr noundef nonnull align 8 dereferenceable(8) %6)
  %8 = icmp ult i32 %5, %7
  br i1 %8, label %21, label %9

9:                                                ; preds = %1
  %10 = getelementptr inbounds nuw %"class.smt::theory_user_propagator", ptr %3, i32 0, i32 32
  %11 = load i32, ptr %10, align 8, !tbaa !79
  %12 = getelementptr inbounds nuw %"class.smt::theory_user_propagator", ptr %3, i32 0, i32 30
  %13 = call noundef i32 @_ZNK15ref_vector_coreI4expr19ref_manager_wrapperIS0_11ast_managerEE4sizeEv(ptr noundef nonnull align 8 dereferenceable(16) %12)
  %14 = icmp ult i32 %11, %13
  br i1 %14, label %21, label %15

15:                                               ; preds = %9
  %16 = getelementptr inbounds nuw %"class.smt::theory_user_propagator", ptr %3, i32 0, i32 38
  %17 = load i32, ptr %16, align 8, !tbaa !83
  %18 = getelementptr inbounds nuw %"class.smt::theory_user_propagator", ptr %3, i32 0, i32 37
  %19 = call noundef i32 @_ZNK6vectorI10ref_vectorI4expr11ast_managerELb1EjE4sizeEv(ptr noundef nonnull align 8 dereferenceable(8) %18)
  %20 = icmp ult i32 %17, %19
  br label %21

21:                                               ; preds = %15, %9, %1
  %22 = phi i1 [ true, %9 ], [ true, %1 ], [ %20, %15 ]
  ret i1 %22
}