; Function Attrs: mustprogress nofree norecurse nosync nounwind willreturn memory(read, inaccessiblemem: none) uwtable
define hidden noundef zeroext i1 @_ZN3smt22theory_user_propagator13can_propagateEv(ptr noundef nonnull readonly align 8 captures(none) dereferenceable(532) %0) unnamed_addr #16 align 2 {
  %2 = getelementptr inbounds nuw i8, ptr %0, i64 384
  %3 = load ptr, ptr %2, align 8, !tbaa !540
  %4 = icmp eq ptr %3, null
  br i1 %4, label %_ZNK6vectorIN3smt22theory_user_propagator9prop_infoELb1EjE4sizeEv.exit.thread, label %_ZNK6vectorIN3smt22theory_user_propagator9prop_infoELb1EjE4sizeEv.exit

_ZNK6vectorIN3smt22theory_user_propagator9prop_infoELb1EjE4sizeEv.exit: ; preds = %1
  %5 = getelementptr inbounds nuw i8, ptr %0, i64 368
  %6 = load i32, ptr %5, align 8, !tbaa !668
  %7 = getelementptr inbounds i8, ptr %3, i64 -4
  %8 = load i32, ptr %7, align 4, !tbaa !508
  %9 = icmp ult i32 %6, %8
  br i1 %9, label %27, label %_ZNK6vectorIN3smt22theory_user_propagator9prop_infoELb1EjE4sizeEv.exit.thread

_ZNK6vectorIN3smt22theory_user_propagator9prop_infoELb1EjE4sizeEv.exit.thread: ; preds = %1, %_ZNK6vectorIN3smt22theory_user_propagator9prop_infoELb1EjE4sizeEv.exit
  %10 = getelementptr inbounds nuw i8, ptr %0, i64 480
  %11 = load ptr, ptr %10, align 8, !tbaa !507
  %12 = icmp eq ptr %11, null
  br i1 %12, label %_ZNK15ref_vector_coreI4expr19ref_manager_wrapperIS0_11ast_managerEE4sizeEv.exit.thread, label %_ZNK15ref_vector_coreI4expr19ref_manager_wrapperIS0_11ast_managerEE4sizeEv.exit

_ZNK15ref_vector_coreI4expr19ref_manager_wrapperIS0_11ast_managerEE4sizeEv.exit: ; preds = %_ZNK6vectorIN3smt22theory_user_propagator9prop_infoELb1EjE4sizeEv.exit.thread
  %13 = getelementptr inbounds nuw i8, ptr %0, i64 496
  %14 = load i32, ptr %13, align 8, !tbaa !669
  %15 = getelementptr inbounds i8, ptr %11, i64 -4
  %16 = load i32, ptr %15, align 4, !tbaa !508
  %17 = icmp ult i32 %14, %16
  br i1 %17, label %27, label %_ZNK15ref_vector_coreI4expr19ref_manager_wrapperIS0_11ast_managerEE4sizeEv.exit.thread

_ZNK15ref_vector_coreI4expr19ref_manager_wrapperIS0_11ast_managerEE4sizeEv.exit.thread: ; preds = %_ZNK6vectorIN3smt22theory_user_propagator9prop_infoELb1EjE4sizeEv.exit.thread, %_ZNK15ref_vector_coreI4expr19ref_manager_wrapperIS0_11ast_managerEE4sizeEv.exit
  %18 = getelementptr inbounds nuw i8, ptr %0, i64 528
  %19 = load i32, ptr %18, align 8, !tbaa !670
  %20 = getelementptr inbounds nuw i8, ptr %0, i64 520
  %21 = load ptr, ptr %20, align 8, !tbaa !535
  %22 = icmp eq ptr %21, null
  br i1 %22, label %_ZNK6vectorI10ref_vectorI4expr11ast_managerELb1EjE4sizeEv.exit, label %23

23:                                               ; preds = %_ZNK15ref_vector_coreI4expr19ref_manager_wrapperIS0_11ast_managerEE4sizeEv.exit.thread
  %24 = getelementptr inbounds i8, ptr %21, i64 -4
  %25 = load i32, ptr %24, align 4, !tbaa !508
  br label %_ZNK6vectorI10ref_vectorI4expr11ast_managerELb1EjE4sizeEv.exit

_ZNK6vectorI10ref_vectorI4expr11ast_managerELb1EjE4sizeEv.exit: ; preds = %_ZNK15ref_vector_coreI4expr19ref_manager_wrapperIS0_11ast_managerEE4sizeEv.exit.thread, %23
  %.0.i1 = phi i32 [ %25, %23 ], [ 0, %_ZNK15ref_vector_coreI4expr19ref_manager_wrapperIS0_11ast_managerEE4sizeEv.exit.thread ]
  %26 = icmp ult i32 %19, %.0.i1
  br label %27

27:                                               ; preds = %_ZNK6vectorI10ref_vectorI4expr11ast_managerELb1EjE4sizeEv.exit, %_ZNK15ref_vector_coreI4expr19ref_manager_wrapperIS0_11ast_managerEE4sizeEv.exit, %_ZNK6vectorIN3smt22theory_user_propagator9prop_infoELb1EjE4sizeEv.exit
  %28 = phi i1 [ true, %_ZNK15ref_vector_coreI4expr19ref_manager_wrapperIS0_11ast_managerEE4sizeEv.exit ], [ true, %_ZNK6vectorIN3smt22theory_user_propagator9prop_infoELb1EjE4sizeEv.exit ], [ %26, %_ZNK6vectorI10ref_vectorI4expr11ast_managerELb1EjE4sizeEv.exit ]
  ret i1 %28
}